; Function Attrs: mustprogress uwtable
define noundef nonnull ptr @_ZN6google8protobuf4util18MessageDifferencer36CreateMultipleFieldsMapKeyComparatorERKSt6vectorIS3_IPKNS0_15FieldDescriptorESaIS6_EESaIS8_EE(ptr noundef nonnull align 8 dereferenceable(432) %this, ptr noundef nonnull align 8 dereferenceable(24) %key_field_paths) local_unnamed_addr #3 align 2 personality ptr @__gxx_personality_v0 {
entry:
  %call = tail call noalias noundef nonnull dereferenceable(40) ptr @_Znwm(i64 noundef 40) #32
  invoke void @_ZN6google8protobuf4util18MessageDifferencer30MultipleFieldsMapKeyComparatorC2EPS2_RKSt6vectorIS5_IPKNS0_15FieldDescriptorESaIS8_EESaISA_EE(ptr noundef nonnull align 8 dereferenceable(40) %call, ptr noundef nonnull %this, ptr noundef nonnull align 8 dereferenceable(24) %key_field_paths)
          to label %invoke.cont unwind label %lpad

invoke.cont:                                      ; preds = %entry
  ret ptr %call

lpad:                                             ; preds = %entry
  %0 = landingpad { ptr, i32 }
          cleanup
  tail call void @_ZdlPv(ptr noundef nonnull %call) #33
  resume { ptr, i32 } %0
}